target datalayout = "e-m:e-p270:32:32-p271:32:32-p272:64:64-i64:64-i128:128-f80:128-n8:16:32:64-S128"
target triple = "x86_64-pc-linux-gnu"

@If_LibBoxGetToken.pBuffer = internal global [1000 x i8] zeroinitializer, align 16

; Function Attrs: nounwind uwtable
define ptr @If_LibBoxGetToken(ptr noundef %0) #0 {
  %2 = alloca ptr, align 8
  %3 = alloca i32, align 4
  %4 = alloca ptr, align 8
  store ptr %0, ptr %2, align 8, !tbaa !38
  call void @llvm.lifetime.start.p0(i64 4, ptr %3) #10
  call void @llvm.lifetime.start.p0(i64 8, ptr %4) #10
  store ptr @If_LibBoxGetToken.pBuffer, ptr %4, align 8, !tbaa !3
  br label %5

5:                                                ; preds = %40, %39, %1
  %6 = load ptr, ptr %2, align 8, !tbaa !38
  %7 = call i32 @fgetc(ptr noundef %6)
  store i32 %7, ptr %3, align 4, !tbaa !8
  %8 = icmp ne i32 %7, -1
  br i1 %8, label %9, label %45

9:                                                ; preds = %5
  %10 = load i32, ptr %3, align 4, !tbaa !8
  %11 = icmp eq i32 %10, 35
  br i1 %11, label %12, label %23

12:                                               ; preds = %9
  br label %13

13:                                               ; preds = %21, %12
  %14 = load ptr, ptr %2, align 8, !tbaa !38
  %15 = call i32 @fgetc(ptr noundef %14)
  store i32 %15, ptr %3, align 4, !tbaa !8
  %16 = icmp ne i32 %15, -1
  br i1 %16, label %17, label %22

17:                                               ; preds = %13
  %18 = load i32, ptr %3, align 4, !tbaa !8
  %19 = icmp eq i32 %18, 10
  br i1 %19, label %20, label %21

20:                                               ; preds = %17
  br label %22

21:                                               ; preds = %17
  br label %13, !llvm.loop !45

22:                                               ; preds = %20, %13
  br label %23

23:                                               ; preds = %22, %9
  %24 = load i32, ptr %3, align 4, !tbaa !8
  %25 = icmp eq i32 %24, 32
  br i1 %25, label %35, label %26

26:                                               ; preds = %23
  %27 = load i32, ptr %3, align 4, !tbaa !8
  %28 = icmp eq i32 %27, 9
  br i1 %28, label %35, label %29

29:                                               ; preds = %26
  %30 = load i32, ptr %3, align 4, !tbaa !8
  %31 = icmp eq i32 %30, 10
  br i1 %31, label %35, label %32

32:                                               ; preds = %29
  %33 = load i32, ptr %3, align 4, !tbaa !8
  %34 = icmp eq i32 %33, 13
  br i1 %34, label %35, label %40

35:                                               ; preds = %32, %29, %26, %23
  %36 = load ptr, ptr %4, align 8, !tbaa !3
  %37 = icmp ugt ptr %36, @If_LibBoxGetToken.pBuffer
  br i1 %37, label %38, label %39

38:                                               ; preds = %35
  br label %45

39:                                               ; preds = %35
  br label %5, !llvm.loop !46

40:                                               ; preds = %32
  %41 = load i32, ptr %3, align 4, !tbaa !8
  %42 = trunc i32 %41 to i8
  %43 = load ptr, ptr %4, align 8, !tbaa !3
  %44 = getelementptr inbounds nuw i8, ptr %43, i32 1
  store ptr %44, ptr %4, align 8, !tbaa !3
  store i8 %42, ptr %43, align 1, !tbaa !41
  br label %5, !llvm.loop !46

45:                                               ; preds = %38, %5
  %46 = load ptr, ptr %4, align 8, !tbaa !3
  store i8 0, ptr %46, align 1, !tbaa !41
  %47 = load ptr, ptr %4, align 8, !tbaa !3
  %48 = icmp ugt ptr %47, @If_LibBoxGetToken.pBuffer
  %49 = select i1 %48, ptr @If_LibBoxGetToken.pBuffer, ptr null
  call void @llvm.lifetime.end.p0(i64 8, ptr %4) #10
  call void @llvm.lifetime.end.p0(i64 4, ptr %3) #10
  ret ptr %49
}