; Function Attrs: nofree nounwind uwtable
define noundef ptr @If_LibBoxGetToken(ptr noundef captures(none) %0) local_unnamed_addr #13 {
  br label %.outer

.outer:                                           ; preds = %.split22.us, %1
  %.0.ph = phi ptr [ %8, %.split22.us ], [ @If_LibBoxGetToken.pBuffer, %1 ]
  %2 = icmp ugt ptr %.0.ph, @If_LibBoxGetToken.pBuffer
  br i1 %2, label %.outer.split.us, label %.outer.split, !llvm.loop !39

.outer.split.us:                                  ; preds = %.outer
  %3 = tail call i32 @fgetc(ptr noundef %0)
  switch i32 %3, label %.loopexit.us [
    i32 -1, label %.split.us
    i32 35, label %.preheader.us
  ]

.preheader.us:                                    ; preds = %.outer.split.us, %.preheader.us
  %4 = tail call i32 @fgetc(ptr noundef %0)
  switch i32 %4, label %.preheader.us [
    i32 -1, label %.loopexit.us
    i32 10, label %.loopexit.us
  ]

.loopexit.us:                                     ; preds = %.preheader.us, %.preheader.us, %.outer.split.us
  %.019.us = phi i32 [ %3, %.outer.split.us ], [ %4, %.preheader.us ], [ %4, %.preheader.us ]
  switch i32 %.019.us, label %.split22.us [
    i32 32, label %.split.us
    i32 13, label %.split.us
    i32 10, label %.split.us
    i32 9, label %.split.us
  ]

.outer.split:                                     ; preds = %.outer, %.outer.split.backedge
  %5 = tail call i32 @fgetc(ptr noundef %0)
  switch i32 %5, label %.loopexit [
    i32 -1, label %.split.us
    i32 35, label %.preheader
  ]

.preheader:                                       ; preds = %.outer.split, %.preheader
  %6 = tail call i32 @fgetc(ptr noundef %0)
  switch i32 %6, label %.preheader [
    i32 -1, label %.loopexit
    i32 10, label %.loopexit
  ]

.loopexit:                                        ; preds = %.preheader, %.preheader, %.outer.split
  %.019 = phi i32 [ %5, %.outer.split ], [ %6, %.preheader ], [ %6, %.preheader ]
  switch i32 %.019, label %.split22.us [
    i32 32, label %.outer.split.backedge
    i32 13, label %.outer.split.backedge
    i32 10, label %.outer.split.backedge
    i32 9, label %.outer.split.backedge
  ]

.outer.split.backedge:                            ; preds = %.loopexit, %.loopexit, %.loopexit, %.loopexit
  br label %.outer.split

.split22.us:                                      ; preds = %.loopexit, %.loopexit.us
  %.us-phi23 = phi i32 [ %.019.us, %.loopexit.us ], [ %.019, %.loopexit ]
  %7 = trunc i32 %.us-phi23 to i8
  %8 = getelementptr i8, ptr %.0.ph, i64 1
  store i8 %7, ptr %.0.ph, align 1, !tbaa !33
  br label %.outer, !llvm.loop !39

.split.us:                                        ; preds = %.loopexit.us, %.loopexit.us, %.loopexit.us, %.loopexit.us, %.outer.split.us, %.outer.split
  %9 = phi ptr [ null, %.outer.split ], [ @If_LibBoxGetToken.pBuffer, %.outer.split.us ], [ @If_LibBoxGetToken.pBuffer, %.loopexit.us ], [ @If_LibBoxGetToken.pBuffer, %.loopexit.us ], [ @If_LibBoxGetToken.pBuffer, %.loopexit.us ], [ @If_LibBoxGetToken.pBuffer, %.loopexit.us ]
  store i8 0, ptr %.0.ph, align 1, !tbaa !33
  ret ptr %9
}